; Function Attrs: mustprogress uwtable
define hidden void @_ZN15fpa2bv_rewriter12convert_atomER11th_rewriterP4expr(ptr dead_on_unwind noalias nonnull writable sret(%class.obj_ref) align 8 initializes((0, 16)) %0, ptr noundef nonnull align 8 dereferenceable(600) %1, ptr noundef nonnull align 8 dereferenceable(16) %2, ptr noundef %3) local_unnamed_addr #3 align 2 personality ptr @__gxx_personality_v0 {
  %5 = alloca %class.obj_ref.48, align 8
  %6 = getelementptr inbounds nuw i8, ptr %1, i64 536
  %7 = load ptr, ptr %6, align 8, !tbaa !17
  store ptr null, ptr %0, align 8, !tbaa !102
  %8 = getelementptr inbounds nuw i8, ptr %0, i64 8
  store ptr %7, ptr %8, align 8, !tbaa !3
  call void @llvm.lifetime.start.p0(i64 16, ptr nonnull %5) #21
  store ptr null, ptr %5, align 8, !tbaa !139
  %9 = getelementptr inbounds nuw i8, ptr %5, i64 8
  store ptr %7, ptr %9, align 8, !tbaa !3
  %10 = getelementptr inbounds nuw i8, ptr %1, i64 496
  invoke void @_ZN12rewriter_tplI19fpa2bv_rewriter_cfgEclEP4exprR7obj_refIS2_11ast_managerERS4_I3appS5_E(ptr noundef nonnull align 8 dereferenceable(536) %1, ptr noundef %3, ptr noundef nonnull align 8 dereferenceable(16) %0, ptr noundef nonnull align 8 dereferenceable(16) %10)
          to label %_ZN12rewriter_tplI19fpa2bv_rewriter_cfgEclEP4exprR7obj_refIS2_11ast_managerE.exit unwind label %12

_ZN12rewriter_tplI19fpa2bv_rewriter_cfgEclEP4exprR7obj_refIS2_11ast_managerE.exit: ; preds = %4
  %11 = load ptr, ptr %0, align 8, !tbaa !102
  invoke void @_ZN11th_rewriterclEP4exprR7obj_refIS0_11ast_managerE(ptr noundef nonnull align 8 dereferenceable(16) %2, ptr noundef %11, ptr noundef nonnull align 8 dereferenceable(16) %0)
          to label %_ZN7obj_refI3app11ast_managerED2Ev.exit unwind label %12

_ZN7obj_refI3app11ast_managerED2Ev.exit:          ; preds = %_ZN12rewriter_tplI19fpa2bv_rewriter_cfgEclEP4exprR7obj_refIS2_11ast_managerE.exit
  call void @llvm.lifetime.end.p0(i64 16, ptr nonnull %5) #21
  ret void

12:                                               ; preds = %4, %_ZN12rewriter_tplI19fpa2bv_rewriter_cfgEclEP4exprR7obj_refIS2_11ast_managerE.exit
  %13 = landingpad { ptr, i32 }
          cleanup
  call void @_ZN7obj_refI3app11ast_managerED2Ev(ptr noundef nonnull align 8 dereferenceable(16) %5) #21
  call void @llvm.lifetime.end.p0(i64 16, ptr nonnull %5) #21
  call void @_ZN7obj_refI4expr11ast_managerED2Ev(ptr noundef nonnull align 8 dereferenceable(16) %0) #21
  resume { ptr, i32 } %13
}